; Function Attrs: mustprogress uwtable
define void @llama_sampler_accept(ptr noundef %0, i32 noundef %1) local_unnamed_addr #0 {
  %3 = load ptr, ptr %0, align 8, !tbaa !3
  %4 = getelementptr inbounds nuw i8, ptr %3, i64 8
  %5 = load ptr, ptr %4, align 8, !tbaa !12
  %.not = icmp eq ptr %5, null
  br i1 %.not, label %7, label %6

6:                                                ; preds = %2
  tail call void %5(ptr noundef nonnull %0, i32 noundef %1)
  br label %7

7:                                                ; preds = %6, %2
  ret void
}